libandroid-nativehelper.so.0 libandroid-nativehelper0 #MINVER#
 JNI_CreateJavaVM@Base 0.0.4+b1
 JNI_GetCreatedJavaVMs@Base 0.0.4+b1
 JNI_GetDefaultJavaVMInitArgs@Base 0.0.4+b1
 _Z13toStringArrayI12ArrayCounter11ArrayGetterEP13_jobjectArrayP7_JNIEnvPT_PT0_@Base 0.0.4+b1
 _Z13toStringArrayP7_JNIEnvPKPKc@Base 0.0.4+b1
 _Z14newStringArrayP7_JNIEnvm@Base 0.0.4+b1
 _ZN12JniConstants10fieldClassE@Base 0.0.4+b1
 _ZN12JniConstants10floatClassE@Base 0.0.4+b1
 _ZN12JniConstants10shortClassE@Base 0.0.4+b1
 _ZN12JniConstants11doubleClassE@Base 0.0.4+b1
 _ZN12JniConstants11methodClassE@Base 0.0.4+b1
 _ZN12JniConstants11objectClassE@Base 0.0.4+b1
 _ZN12JniConstants11socketClassE@Base 0.0.4+b1
 _ZN12JniConstants11stringClassE@Base 0.0.4+b1
 _ZN12JniConstants12booleanClassE@Base 0.0.4+b1
 _ZN12JniConstants12integerClassE@Base 0.0.4+b1
 _ZN12JniConstants13calendarClassE@Base 0.0.4+b1
 _ZN12JniConstants13deflaterClassE@Base 0.0.4+b1
 _ZN12JniConstants13inflaterClassE@Base 0.0.4+b1
 _ZN12JniConstants13zipEntryClassE@Base 0.0.4+b1
 _ZN12JniConstants14byteArrayClassE@Base 0.0.4+b1
 _ZN12JniConstants14characterClassE@Base 0.0.4+b1
 _ZN12JniConstants14referenceClassE@Base 0.0.4+b1
 _ZN12JniConstants15bigDecimalClassE@Base 0.0.4+b1
 _ZN12JniConstants15charsetICUClassE@Base 0.0.4+b1
 _ZN12JniConstants15localeDataClassE@Base 0.0.4+b1
 _ZN12JniConstants15mutableIntClassE@Base 0.0.4+b1
 _ZN12JniConstants15socketImplClassE@Base 0.0.4+b1
 _ZN12JniConstants15structStatClassE@Base 0.0.4+b1
 _ZN12JniConstants16constructorClassE@Base 0.0.4+b1
 _ZN12JniConstants16inetAddressClassE@Base 0.0.4+b1
 _ZN12JniConstants16inputStreamClassE@Base 0.0.4+b1
 _ZN12JniConstants16mutableLongClassE@Base 0.0.4+b1
 _ZN12JniConstants16objectArrayClassE@Base 0.0.4+b1
 _ZN12JniConstants16structFlockClassE@Base 0.0.4+b1
 _ZN12JniConstants16structUcredClassE@Base 0.0.4+b1
 _ZN12JniConstants17gaiExceptionClassE@Base 0.0.4+b1
 _ZN12JniConstants17inet6AddressClassE@Base 0.0.4+b1
 _ZN12JniConstants17outputStreamClassE@Base 0.0.4+b1
 _ZN12JniConstants17socketTaggerClassE@Base 0.0.4+b1
 _ZN12JniConstants17structLingerClassE@Base 0.0.4+b1
 _ZN12JniConstants17structPasswdClassE@Base 0.0.4+b1
 _ZN12JniConstants17structPollfdClassE@Base 0.0.4+b1
 _ZN12JniConstants18parsePositionClassE@Base 0.0.4+b1
 _ZN12JniConstants18structStatVfsClassE@Base 0.0.4+b1
 _ZN12JniConstants18structTimevalClassE@Base 0.0.4+b1
 _ZN12JniConstants18structUtsnameClassE@Base 0.0.4+b1
 _ZN12JniConstants19errnoExceptionClassE@Base 0.0.4+b1
 _ZN12JniConstants19fileDescriptorClassE@Base 0.0.4+b1
 _ZN12JniConstants19structAddrinfoClassE@Base 0.0.4+b1
 _ZN12JniConstants19structGroupReqClassE@Base 0.0.4+b1
 _ZN12JniConstants22inetAddressHolderClassE@Base 0.0.4+b1
 _ZN12JniConstants22inetSocketAddressClassE@Base 0.0.4+b1
 _ZN12JniConstants22unixSocketAddressClassE@Base 0.0.4+b1
 _ZN12JniConstants24packetSocketAddressClassE@Base 0.0.4+b1
 _ZN12JniConstants25netlinkSocketAddressClassE@Base 0.0.4+b1
 _ZN12JniConstants25structGroupSourceReqClassE@Base 0.0.4+b1
 _ZN12JniConstants27patternSyntaxExceptionClassE@Base 0.0.4+b1
 _ZN12JniConstants28inetSocketAddressHolderClassE@Base 0.0.4+b1
 _ZN12JniConstants4initEP7_JNIEnv@Base 0.0.4+b1
 _ZN12JniConstants9byteClassE@Base 0.0.4+b1
 _ZN12JniConstants9longClassE@Base 0.0.4+b1
 _ZN13JniInvocation10FindSymbolEPPvPKc@Base 0.0.4+b1
 _ZN13JniInvocation10GetLibraryEPKcPc@Base 0.0.4+b1
 _ZN13JniInvocation15jni_invocation_E@Base 0.0.4+b1
 _ZN13JniInvocation16GetJniInvocationEv@Base 0.0.4+b1
 _ZN13JniInvocation16JNI_CreateJavaVMEPP7_JavaVMPP7_JNIEnvPv@Base 0.0.4+b1
 _ZN13JniInvocation21JNI_GetCreatedJavaVMsEPP7_JavaVMiPi@Base 0.0.4+b1
 _ZN13JniInvocation28JNI_GetDefaultJavaVMInitArgsEPv@Base 0.0.4+b1
 _ZN13JniInvocation4InitEPKc@Base 0.0.4+b1
 _ZN13JniInvocationC1Ev@Base 0.0.4+b1
 _ZN13JniInvocationC2Ev@Base 0.0.4+b1
 _ZN13JniInvocationD1Ev@Base 0.0.4+b1
 _ZN13JniInvocationD2Ev@Base 0.0.4+b1
 _ZN24AsynchronousCloseMonitor20signalBlockedThreadsEi@Base 0.0.4+b1
 _ZN24AsynchronousCloseMonitor4initEv@Base 0.0.4+b1
 _ZN24AsynchronousCloseMonitorC1Ei@Base 0.0.4+b1
 _ZN24AsynchronousCloseMonitorC2Ei@Base 0.0.4+b1
 _ZN24AsynchronousCloseMonitorD1Ev@Base 0.0.4+b1
 _ZN24AsynchronousCloseMonitorD2Ev@Base 0.0.4+b1
 _ZNK24AsynchronousCloseMonitor11wasSignaledEv@Base 0.0.4+b1
 jniCreateFileDescriptor@Base 0.0.4+b1
 jniGetFDFromFileDescriptor@Base 0.0.4+b1
 jniGetReferent@Base 0.0.4+b1
 jniLogException@Base 0.0.4+b1
 jniRegisterNativeMethods@Base 0.0.4+b1
 jniSetFileDescriptorOfFD@Base 0.0.4+b1
 jniStrError@Base 0.0.4+b1
 jniThrowException@Base 0.0.4+b1
 jniThrowExceptionFmt@Base 0.0.4+b1
 jniThrowIOException@Base 0.0.4+b1
 jniThrowNullPointerException@Base 0.0.4+b1
 jniThrowRuntimeException@Base 0.0.4+b1
